; Function Attrs: mustprogress nofree norecurse nosync nounwind willreturn memory(read, inaccessiblemem: none) uwtable
define dso_local noundef zeroext i1 @_ZN4llvm5RISCV8isZEXT_WERKNS_12MachineInstrE(ptr nocapture noundef nonnull readonly align 8 dereferenceable(70) %0) local_unnamed_addr #9 {
  %2 = getelementptr inbounds nuw i8, ptr %0, i64 68
  %3 = load i16, ptr %2, align 4
  %4 = icmp eq i16 %3, 11888
  br i1 %4, label %5, label %21

5:                                                ; preds = %1
  %6 = getelementptr inbounds nuw i8, ptr %0, i64 32
  %7 = load ptr, ptr %6, align 8
  %8 = getelementptr inbounds i8, ptr %7, i64 32
  %9 = load i32, ptr %8, align 8
  %10 = and i32 %9, 255
  %11 = icmp eq i32 %10, 0
  br i1 %11, label %12, label %21

12:                                               ; preds = %5
  %13 = getelementptr inbounds i8, ptr %7, i64 64
  %14 = load i32, ptr %13, align 8
  %15 = and i32 %14, 255
  %16 = icmp eq i32 %15, 0
  br i1 %16, label %17, label %21

17:                                               ; preds = %12
  %18 = getelementptr inbounds i8, ptr %7, i64 68
  %19 = load i32, ptr %18, align 4
  %20 = icmp eq i32 %19, 43
  br label %21

21:                                               ; preds = %17, %12, %5, %1
  %22 = phi i1 [ false, %12 ], [ false, %5 ], [ false, %1 ], [ %20, %17 ]
  ret i1 %22
}